target datalayout = "e-m:e-p270:32:32-p271:32:32-p272:64:64-i64:64-i128:128-f80:128-n8:16:32:64-S128"
target triple = "x86_64-pc-linux-gnu"

%struct.lean_object = type { i32, i32 }

; Function Attrs: inlinehint nounwind uwtable
define internal zeroext i1 @lean_is_st(ptr noundef %0) #0 {
  %2 = alloca ptr, align 8
  store ptr %0, ptr %2, align 8, !tbaa !4
  %3 = load ptr, ptr %2, align 8, !tbaa !4
  %4 = getelementptr inbounds nuw %struct.lean_object, ptr %3, i32 0, i32 0
  %5 = load i32, ptr %4, align 4, !tbaa !19
  %6 = icmp sgt i32 %5, 0
  ret i1 %6
}

; Function Attrs: inlinehint nounwind uwtable
define internal void @lean_inc_ref(ptr noundef %0) #0 {
  %2 = alloca ptr, align 8
  store ptr %0, ptr %2, align 8, !tbaa !4
  %3 = load ptr, ptr %2, align 8, !tbaa !4
  %4 = call zeroext i1 @lean_is_st(ptr noundef %3)
  %5 = zext i1 %4 to i64
  %6 = call i64 @llvm.expect.i64(i64 %5, i64 1)
  %7 = icmp ne i64 %6, 0
  br i1 %7, label %8, label %13

8:                                                ; preds = %1
  %9 = load ptr, ptr %2, align 8, !tbaa !4
  %10 = getelementptr inbounds nuw %struct.lean_object, ptr %9, i32 0, i32 0
  %11 = load i32, ptr %10, align 4, !tbaa !19
  %12 = add i32 %11, 1
  store i32 %12, ptr %10, align 4, !tbaa !19
  br label %21

13:                                               ; preds = %1
  %14 = load ptr, ptr %2, align 8, !tbaa !4
  %15 = getelementptr inbounds nuw %struct.lean_object, ptr %14, i32 0, i32 0
  %16 = load i32, ptr %15, align 4, !tbaa !19
  %17 = icmp ne i32 %16, 0
  br i1 %17, label %18, label %20

18:                                               ; preds = %13
  %19 = load ptr, ptr %2, align 8, !tbaa !4
  call void @lean_inc_ref_cold(ptr noundef %19)
  br label %20

20:                                               ; preds = %18, %13
  br label %21

21:                                               ; preds = %20, %8
  ret void
}

; Function Attrs: alwaysinline nounwind uwtable
define internal void @lean_dec_ref(ptr noundef %0) #1 {
  %2 = alloca ptr, align 8
  store ptr %0, ptr %2, align 8, !tbaa !4
  %3 = load ptr, ptr %2, align 8, !tbaa !4
  %4 = getelementptr inbounds nuw %struct.lean_object, ptr %3, i32 0, i32 0
  %5 = load i32, ptr %4, align 4, !tbaa !19
  %6 = icmp sgt i32 %5, 1
  %7 = zext i1 %6 to i32
  %8 = sext i32 %7 to i64
  %9 = call i64 @llvm.expect.i64(i64 %8, i64 1)
  %10 = icmp ne i64 %9, 0
  br i1 %10, label %11, label %16

11:                                               ; preds = %1
  %12 = load ptr, ptr %2, align 8, !tbaa !4
  %13 = getelementptr inbounds nuw %struct.lean_object, ptr %12, i32 0, i32 0
  %14 = load i32, ptr %13, align 4, !tbaa !19
  %15 = add i32 %14, -1
  store i32 %15, ptr %13, align 4, !tbaa !19
  br label %24

16:                                               ; preds = %1
  %17 = load ptr, ptr %2, align 8, !tbaa !4
  %18 = getelementptr inbounds nuw %struct.lean_object, ptr %17, i32 0, i32 0
  %19 = load i32, ptr %18, align 4, !tbaa !19
  %20 = icmp ne i32 %19, 0
  br i1 %20, label %21, label %23

21:                                               ; preds = %16
  %22 = load ptr, ptr %2, align 8, !tbaa !4
  call void @lean_dec_ref_cold(ptr noundef %22)
  br label %23

23:                                               ; preds = %21, %16
  br label %24

24:                                               ; preds = %23, %11
  ret void
}

; Function Attrs: alwaysinline nounwind uwtable
define internal zeroext i1 @lean_is_scalar(ptr noundef %0) #1 {
  %2 = alloca ptr, align 8
  store ptr %0, ptr %2, align 8, !tbaa !4
  %3 = load ptr, ptr %2, align 8, !tbaa !4
  %4 = ptrtoint ptr %3 to i64
  %5 = and i64 %4, 1
  %6 = icmp eq i64 %5, 1
  ret i1 %6
}

; Function Attrs: alwaysinline nounwind uwtable
define internal void @lean_inc(ptr noundef %0) #1 {
  %2 = alloca ptr, align 8
  store ptr %0, ptr %2, align 8, !tbaa !4
  %3 = load ptr, ptr %2, align 8, !tbaa !4
  %4 = call zeroext i1 @lean_is_scalar(ptr noundef %3)
  br i1 %4, label %7, label %5

5:                                                ; preds = %1
  %6 = load ptr, ptr %2, align 8, !tbaa !4
  call void @lean_inc_ref(ptr noundef %6)
  br label %7

7:                                                ; preds = %5, %1
  ret void
}

; Function Attrs: alwaysinline nounwind uwtable
define internal void @lean_dec(ptr noundef %0) #1 {
  %2 = alloca ptr, align 8
  store ptr %0, ptr %2, align 8, !tbaa !4
  %3 = load ptr, ptr %2, align 8, !tbaa !4
  %4 = call zeroext i1 @lean_is_scalar(ptr noundef %3)
  br i1 %4, label %7, label %5

5:                                                ; preds = %1
  %6 = load ptr, ptr %2, align 8, !tbaa !4
  call void @lean_dec_ref(ptr noundef %6)
  br label %7

7:                                                ; preds = %5, %1
  ret void
}

; Function Attrs: nounwind uwtable
define ptr @l_Std_Time_HourMarker_noConfusion___rarg___lambda__1(ptr noundef %0) #2 {
  %2 = alloca ptr, align 8
  store ptr %0, ptr %2, align 8, !tbaa !4
  br label %3

3:                                                ; preds = %1
  %4 = load ptr, ptr %2, align 8, !tbaa !4
  call void @lean_inc(ptr noundef %4)
  %5 = load ptr, ptr %2, align 8, !tbaa !4
  ret ptr %5
}

; Function Attrs: nounwind uwtable
define ptr @l_Std_Time_HourMarker_noConfusion___rarg___lambda__1___boxed(ptr noundef %0) #2 {
  %2 = alloca ptr, align 8
  %3 = alloca ptr, align 8
  store ptr %0, ptr %2, align 8, !tbaa !4
  br label %4

4:                                                ; preds = %1
  call void @llvm.lifetime.start.p0(i64 8, ptr %3) #7
  %5 = load ptr, ptr %2, align 8, !tbaa !4
  %6 = call ptr @l_Std_Time_HourMarker_noConfusion___rarg___lambda__1(ptr noundef %5)
  store ptr %6, ptr %3, align 8, !tbaa !4
  %7 = load ptr, ptr %2, align 8, !tbaa !4
  call void @lean_dec(ptr noundef %7)
  %8 = load ptr, ptr %3, align 8, !tbaa !4
  call void @llvm.lifetime.end.p0(i64 8, ptr %3) #7
  ret ptr %8
}